; Function Attrs: mustprogress uwtable
define internal void @_ZN4LuauL8fnVisitVIZNS_12_GLOBAL__N_110TypeCloner13cloneChildrenEPKNS_4TypeEEUlOT_E_NS_8LazyTypeEEEvRS6_PNSt11conditionalIXsr3stdE10is_const_vIT0_EEKvvE4typeE(ptr noundef nonnull readonly align 8 captures(none) dereferenceable(8) %0, ptr noundef captures(none) %1) #2 personality ptr @__gxx_personality_v0 {
  %3 = load ptr, ptr %0, align 8, !tbaa !335
  %4 = getelementptr inbounds nuw i8, ptr %1, i64 32
  %5 = load atomic i64, ptr %4 seq_cst, align 8
  %.not.i.i = icmp eq i64 %5, 0
  br i1 %.not.i.i, label %_ZZN4Luau12_GLOBAL__N_110TypeCloner13cloneChildrenEPKNS_4TypeEENKUlOT_E_clIRNS_8LazyTypeEEEDaS6_.exit, label %6

6:                                                ; preds = %2
  %.0.i.i.i.i = inttoptr i64 %5 to ptr
  %7 = tail call fastcc noundef ptr @_ZN4Luau12_GLOBAL__N_110TypeCloner12shallowCloneEPKNS_4TypeE(ptr noundef nonnull align 8 dereferenceable(76) %3, ptr noundef nonnull %.0.i.i.i.i)
  %8 = ptrtoint ptr %7 to i64
  store atomic i64 %8, ptr %4 seq_cst, align 8
  br label %_ZZN4Luau12_GLOBAL__N_110TypeCloner13cloneChildrenEPKNS_4TypeEENKUlOT_E_clIRNS_8LazyTypeEEEDaS6_.exit

_ZZN4Luau12_GLOBAL__N_110TypeCloner13cloneChildrenEPKNS_4TypeEENKUlOT_E_clIRNS_8LazyTypeEEEDaS6_.exit: ; preds = %2, %6
  ret void
}